target datalayout = "e-m:e-p270:32:32-p271:32:32-p272:64:64-i64:64-i128:128-f80:128-n8:16:32:64-S128"
target triple = "x86_64-pc-linux-gnu"

%"class.OpenColorIO_v2_5dev::MatrixTransformImpl" = type { %"class.OpenColorIO_v2_5dev::MatrixTransform", %"class.OpenColorIO_v2_5dev::MatrixOpData" }
%"class.OpenColorIO_v2_5dev::MatrixTransform" = type { %"class.OpenColorIO_v2_5dev::Transform" }
%"class.OpenColorIO_v2_5dev::Transform" = type { ptr }
%"class.OpenColorIO_v2_5dev::MatrixOpData" = type <{ %"class.OpenColorIO_v2_5dev::OpData", %"class.OpenColorIO_v2_5dev::MatrixOpData::MatrixArray", %"class.OpenColorIO_v2_5dev::MatrixOpData::Offsets", i32, i32, i32, [4 x i8] }>
%"class.OpenColorIO_v2_5dev::OpData" = type { ptr, %"class.std::mutex", %"class.OpenColorIO_v2_5dev::FormatMetadataImpl" }
%"class.std::mutex" = type { %"class.std::__mutex_base" }
%"class.std::__mutex_base" = type { %union.pthread_mutex_t }
%union.pthread_mutex_t = type { %struct.__pthread_mutex_s }
%struct.__pthread_mutex_s = type { i32, i32, i32, i32, i32, i16, i16, %struct.__pthread_internal_list }
%struct.__pthread_internal_list = type { ptr, ptr }
%"class.OpenColorIO_v2_5dev::FormatMetadataImpl" = type { %"class.OpenColorIO_v2_5dev::FormatMetadata", %"class.std::__cxx11::basic_string", %"class.std::__cxx11::basic_string", %"class.std::vector", %"class.std::vector.3" }
%"class.OpenColorIO_v2_5dev::FormatMetadata" = type { ptr }
%"class.std::__cxx11::basic_string" = type { %"struct.std::__cxx11::basic_string<char>::_Alloc_hider", i64, %union.anon }
%"struct.std::__cxx11::basic_string<char>::_Alloc_hider" = type { ptr }
%union.anon = type { i64, [8 x i8] }
%"class.std::vector" = type { %"struct.std::_Vector_base" }
%"struct.std::_Vector_base" = type { %"struct.std::_Vector_base<std::pair<std::__cxx11::basic_string<char>, std::__cxx11::basic_string<char>>, std::allocator<std::pair<std::__cxx11::basic_string<char>, std::__cxx11::basic_string<char>>>>::_Vector_impl" }
%"struct.std::_Vector_base<std::pair<std::__cxx11::basic_string<char>, std::__cxx11::basic_string<char>>, std::allocator<std::pair<std::__cxx11::basic_string<char>, std::__cxx11::basic_string<char>>>>::_Vector_impl" = type { %"struct.std::_Vector_base<std::pair<std::__cxx11::basic_string<char>, std::__cxx11::basic_string<char>>, std::allocator<std::pair<std::__cxx11::basic_string<char>, std::__cxx11::basic_string<char>>>>::_Vector_impl_data" }
%"struct.std::_Vector_base<std::pair<std::__cxx11::basic_string<char>, std::__cxx11::basic_string<char>>, std::allocator<std::pair<std::__cxx11::basic_string<char>, std::__cxx11::basic_string<char>>>>::_Vector_impl_data" = type { ptr, ptr, ptr }
%"class.std::vector.3" = type { %"struct.std::_Vector_base.4" }
%"struct.std::_Vector_base.4" = type { %"struct.std::_Vector_base<OpenColorIO_v2_5dev::FormatMetadataImpl, std::allocator<OpenColorIO_v2_5dev::FormatMetadataImpl>>::_Vector_impl" }
%"struct.std::_Vector_base<OpenColorIO_v2_5dev::FormatMetadataImpl, std::allocator<OpenColorIO_v2_5dev::FormatMetadataImpl>>::_Vector_impl" = type { %"struct.std::_Vector_base<OpenColorIO_v2_5dev::FormatMetadataImpl, std::allocator<OpenColorIO_v2_5dev::FormatMetadataImpl>>::_Vector_impl_data" }
%"struct.std::_Vector_base<OpenColorIO_v2_5dev::FormatMetadataImpl, std::allocator<OpenColorIO_v2_5dev::FormatMetadataImpl>>::_Vector_impl_data" = type { ptr, ptr, ptr }
%"class.OpenColorIO_v2_5dev::MatrixOpData::MatrixArray" = type { %"class.OpenColorIO_v2_5dev::ArrayT" }
%"class.OpenColorIO_v2_5dev::ArrayT" = type { %"class.OpenColorIO_v2_5dev::ArrayBase", i64, i64, %"class.std::vector.8" }
%"class.OpenColorIO_v2_5dev::ArrayBase" = type { ptr }
%"class.std::vector.8" = type { %"struct.std::_Vector_base.9" }
%"struct.std::_Vector_base.9" = type { %"struct.std::_Vector_base<double, std::allocator<double>>::_Vector_impl" }
%"struct.std::_Vector_base<double, std::allocator<double>>::_Vector_impl" = type { %"struct.std::_Vector_base<double, std::allocator<double>>::_Vector_impl_data" }
%"struct.std::_Vector_base<double, std::allocator<double>>::_Vector_impl_data" = type { ptr, ptr, ptr }
%"class.OpenColorIO_v2_5dev::MatrixOpData::Offsets" = type { [4 x double] }

; Function Attrs: mustprogress nounwind uwtable
define linkonce_odr hidden noundef nonnull align 8 dereferenceable(8) ptr @_ZNKSt6vectorIdSaIdEEixEm(ptr noundef nonnull align 8 dereferenceable(24) %0, i64 noundef %1) #8 comdat align 2 {
  %3 = alloca ptr, align 8
  %4 = alloca i64, align 8
  store ptr %0, ptr %3, align 8, !tbaa !71
  store i64 %1, ptr %4, align 8, !tbaa !97
  %5 = load ptr, ptr %3, align 8
  %6 = getelementptr inbounds nuw %"struct.std::_Vector_base.9", ptr %5, i32 0, i32 0
  %7 = getelementptr inbounds nuw %"struct.std::_Vector_base<double, std::allocator<double>>::_Vector_impl_data", ptr %6, i32 0, i32 0
  %8 = load ptr, ptr %7, align 8, !tbaa !113
  %9 = load i64, ptr %4, align 8, !tbaa !97
  %10 = getelementptr inbounds nuw double, ptr %8, i64 %9
  ret ptr %10
}

; Function Attrs: mustprogress nounwind uwtable
define linkonce_odr hidden void @_ZN19OpenColorIO_v2_5dev9GetMatrixIdEEvRKSt6vectorIdSaIdEEPT_(ptr noundef nonnull align 8 dereferenceable(24) %0, ptr noundef %1) #8 comdat {
  %3 = alloca ptr, align 8
  %4 = alloca ptr, align 8
  store ptr %0, ptr %3, align 8, !tbaa !71
  store ptr %1, ptr %4, align 8, !tbaa !70
  %5 = load ptr, ptr %4, align 8, !tbaa !70
  %6 = icmp ne ptr %5, null
  br i1 %6, label %7, label %88

7:                                                ; preds = %2
  %8 = load ptr, ptr %3, align 8, !tbaa !71
  %9 = call noundef nonnull align 8 dereferenceable(8) ptr @_ZNKSt6vectorIdSaIdEEixEm(ptr noundef nonnull align 8 dereferenceable(24) %8, i64 noundef 0) #3
  %10 = load double, ptr %9, align 8, !tbaa !75
  %11 = load ptr, ptr %4, align 8, !tbaa !70
  %12 = getelementptr inbounds double, ptr %11, i64 0
  store double %10, ptr %12, align 8, !tbaa !75
  %13 = load ptr, ptr %3, align 8, !tbaa !71
  %14 = call noundef nonnull align 8 dereferenceable(8) ptr @_ZNKSt6vectorIdSaIdEEixEm(ptr noundef nonnull align 8 dereferenceable(24) %13, i64 noundef 1) #3
  %15 = load double, ptr %14, align 8, !tbaa !75
  %16 = load ptr, ptr %4, align 8, !tbaa !70
  %17 = getelementptr inbounds double, ptr %16, i64 1
  store double %15, ptr %17, align 8, !tbaa !75
  %18 = load ptr, ptr %3, align 8, !tbaa !71
  %19 = call noundef nonnull align 8 dereferenceable(8) ptr @_ZNKSt6vectorIdSaIdEEixEm(ptr noundef nonnull align 8 dereferenceable(24) %18, i64 noundef 2) #3
  %20 = load double, ptr %19, align 8, !tbaa !75
  %21 = load ptr, ptr %4, align 8, !tbaa !70
  %22 = getelementptr inbounds double, ptr %21, i64 2
  store double %20, ptr %22, align 8, !tbaa !75
  %23 = load ptr, ptr %3, align 8, !tbaa !71
  %24 = call noundef nonnull align 8 dereferenceable(8) ptr @_ZNKSt6vectorIdSaIdEEixEm(ptr noundef nonnull align 8 dereferenceable(24) %23, i64 noundef 3) #3
  %25 = load double, ptr %24, align 8, !tbaa !75
  %26 = load ptr, ptr %4, align 8, !tbaa !70
  %27 = getelementptr inbounds double, ptr %26, i64 3
  store double %25, ptr %27, align 8, !tbaa !75
  %28 = load ptr, ptr %3, align 8, !tbaa !71
  %29 = call noundef nonnull align 8 dereferenceable(8) ptr @_ZNKSt6vectorIdSaIdEEixEm(ptr noundef nonnull align 8 dereferenceable(24) %28, i64 noundef 4) #3
  %30 = load double, ptr %29, align 8, !tbaa !75
  %31 = load ptr, ptr %4, align 8, !tbaa !70
  %32 = getelementptr inbounds double, ptr %31, i64 4
  store double %30, ptr %32, align 8, !tbaa !75
  %33 = load ptr, ptr %3, align 8, !tbaa !71
  %34 = call noundef nonnull align 8 dereferenceable(8) ptr @_ZNKSt6vectorIdSaIdEEixEm(ptr noundef nonnull align 8 dereferenceable(24) %33, i64 noundef 5) #3
  %35 = load double, ptr %34, align 8, !tbaa !75
  %36 = load ptr, ptr %4, align 8, !tbaa !70
  %37 = getelementptr inbounds double, ptr %36, i64 5
  store double %35, ptr %37, align 8, !tbaa !75
  %38 = load ptr, ptr %3, align 8, !tbaa !71
  %39 = call noundef nonnull align 8 dereferenceable(8) ptr @_ZNKSt6vectorIdSaIdEEixEm(ptr noundef nonnull align 8 dereferenceable(24) %38, i64 noundef 6) #3
  %40 = load double, ptr %39, align 8, !tbaa !75
  %41 = load ptr, ptr %4, align 8, !tbaa !70
  %42 = getelementptr inbounds double, ptr %41, i64 6
  store double %40, ptr %42, align 8, !tbaa !75
  %43 = load ptr, ptr %3, align 8, !tbaa !71
  %44 = call noundef nonnull align 8 dereferenceable(8) ptr @_ZNKSt6vectorIdSaIdEEixEm(ptr noundef nonnull align 8 dereferenceable(24) %43, i64 noundef 7) #3
  %45 = load double, ptr %44, align 8, !tbaa !75
  %46 = load ptr, ptr %4, align 8, !tbaa !70
  %47 = getelementptr inbounds double, ptr %46, i64 7
  store double %45, ptr %47, align 8, !tbaa !75
  %48 = load ptr, ptr %3, align 8, !tbaa !71
  %49 = call noundef nonnull align 8 dereferenceable(8) ptr @_ZNKSt6vectorIdSaIdEEixEm(ptr noundef nonnull align 8 dereferenceable(24) %48, i64 noundef 8) #3
  %50 = load double, ptr %49, align 8, !tbaa !75
  %51 = load ptr, ptr %4, align 8, !tbaa !70
  %52 = getelementptr inbounds double, ptr %51, i64 8
  store double %50, ptr %52, align 8, !tbaa !75
  %53 = load ptr, ptr %3, align 8, !tbaa !71
  %54 = call noundef nonnull align 8 dereferenceable(8) ptr @_ZNKSt6vectorIdSaIdEEixEm(ptr noundef nonnull align 8 dereferenceable(24) %53, i64 noundef 9) #3
  %55 = load double, ptr %54, align 8, !tbaa !75
  %56 = load ptr, ptr %4, align 8, !tbaa !70
  %57 = getelementptr inbounds double, ptr %56, i64 9
  store double %55, ptr %57, align 8, !tbaa !75
  %58 = load ptr, ptr %3, align 8, !tbaa !71
  %59 = call noundef nonnull align 8 dereferenceable(8) ptr @_ZNKSt6vectorIdSaIdEEixEm(ptr noundef nonnull align 8 dereferenceable(24) %58, i64 noundef 10) #3
  %60 = load double, ptr %59, align 8, !tbaa !75
  %61 = load ptr, ptr %4, align 8, !tbaa !70
  %62 = getelementptr inbounds double, ptr %61, i64 10
  store double %60, ptr %62, align 8, !tbaa !75
  %63 = load ptr, ptr %3, align 8, !tbaa !71
  %64 = call noundef nonnull align 8 dereferenceable(8) ptr @_ZNKSt6vectorIdSaIdEEixEm(ptr noundef nonnull align 8 dereferenceable(24) %63, i64 noundef 11) #3
  %65 = load double, ptr %64, align 8, !tbaa !75
  %66 = load ptr, ptr %4, align 8, !tbaa !70
  %67 = getelementptr inbounds double, ptr %66, i64 11
  store double %65, ptr %67, align 8, !tbaa !75
  %68 = load ptr, ptr %3, align 8, !tbaa !71
  %69 = call noundef nonnull align 8 dereferenceable(8) ptr @_ZNKSt6vectorIdSaIdEEixEm(ptr noundef nonnull align 8 dereferenceable(24) %68, i64 noundef 12) #3
  %70 = load double, ptr %69, align 8, !tbaa !75
  %71 = load ptr, ptr %4, align 8, !tbaa !70
  %72 = getelementptr inbounds double, ptr %71, i64 12
  store double %70, ptr %72, align 8, !tbaa !75
  %73 = load ptr, ptr %3, align 8, !tbaa !71
  %74 = call noundef nonnull align 8 dereferenceable(8) ptr @_ZNKSt6vectorIdSaIdEEixEm(ptr noundef nonnull align 8 dereferenceable(24) %73, i64 noundef 13) #3
  %75 = load double, ptr %74, align 8, !tbaa !75
  %76 = load ptr, ptr %4, align 8, !tbaa !70
  %77 = getelementptr inbounds double, ptr %76, i64 13
  store double %75, ptr %77, align 8, !tbaa !75
  %78 = load ptr, ptr %3, align 8, !tbaa !71
  %79 = call noundef nonnull align 8 dereferenceable(8) ptr @_ZNKSt6vectorIdSaIdEEixEm(ptr noundef nonnull align 8 dereferenceable(24) %78, i64 noundef 14) #3
  %80 = load double, ptr %79, align 8, !tbaa !75
  %81 = load ptr, ptr %4, align 8, !tbaa !70
  %82 = getelementptr inbounds double, ptr %81, i64 14
  store double %80, ptr %82, align 8, !tbaa !75
  %83 = load ptr, ptr %3, align 8, !tbaa !71
  %84 = call noundef nonnull align 8 dereferenceable(8) ptr @_ZNKSt6vectorIdSaIdEEixEm(ptr noundef nonnull align 8 dereferenceable(24) %83, i64 noundef 15) #3
  %85 = load double, ptr %84, align 8, !tbaa !75
  %86 = load ptr, ptr %4, align 8, !tbaa !70
  %87 = getelementptr inbounds double, ptr %86, i64 15
  store double %85, ptr %87, align 8, !tbaa !75
  br label %88

88:                                               ; preds = %7, %2
  ret void
}

; Function Attrs: inlinehint mustprogress nounwind uwtable
define linkonce_odr hidden noundef nonnull align 8 dereferenceable(24) ptr @_ZNK19OpenColorIO_v2_5dev6ArrayTIdE9getValuesEv(ptr noundef nonnull align 8 dereferenceable(48) %0) #14 comdat align 2 {
  %2 = alloca ptr, align 8
  store ptr %0, ptr %2, align 8, !tbaa !73
  %3 = load ptr, ptr %2, align 8
  %4 = getelementptr inbounds nuw %"class.OpenColorIO_v2_5dev::ArrayT", ptr %3, i32 0, i32 3
  ret ptr %4
}

; Function Attrs: inlinehint mustprogress nounwind uwtable
define linkonce_odr hidden noundef nonnull align 8 dereferenceable(48) ptr @_ZNK19OpenColorIO_v2_5dev12MatrixOpData8getArrayEv(ptr noundef nonnull align 8 dereferenceable(260) %0) #14 comdat align 2 {
  %2 = alloca ptr, align 8
  store ptr %0, ptr %2, align 8, !tbaa !21
  %3 = load ptr, ptr %2, align 8
  %4 = getelementptr inbounds nuw %"class.OpenColorIO_v2_5dev::MatrixOpData", ptr %3, i32 0, i32 1
  ret ptr %4
}

; Function Attrs: mustprogress nounwind uwtable
define linkonce_odr hidden noundef nonnull align 8 dereferenceable(260) ptr @_ZNK19OpenColorIO_v2_5dev19MatrixTransformImpl4dataEv(ptr noundef nonnull align 8 dereferenceable(272) %0) #8 comdat align 2 {
  %2 = alloca ptr, align 8
  store ptr %0, ptr %2, align 8, !tbaa !3
  %3 = load ptr, ptr %2, align 8
  %4 = getelementptr inbounds nuw %"class.OpenColorIO_v2_5dev::MatrixTransformImpl", ptr %3, i32 0, i32 1
  ret ptr %4
}

; Function Attrs: mustprogress uwtable
define hidden void @_ZNK19OpenColorIO_v2_5dev19MatrixTransformImpl9getMatrixEPd(ptr noundef nonnull align 8 dereferenceable(272) %0, ptr noundef %1) unnamed_addr #4 align 2 {
  %3 = alloca ptr, align 8
  %4 = alloca ptr, align 8
  %5 = alloca ptr, align 8
  store ptr %0, ptr %3, align 8, !tbaa !3
  store ptr %1, ptr %4, align 8, !tbaa !70
  %6 = load ptr, ptr %3, align 8
  call void @llvm.lifetime.start.p0(i64 8, ptr %5) #3
  %7 = call noundef nonnull align 8 dereferenceable(260) ptr @_ZNK19OpenColorIO_v2_5dev19MatrixTransformImpl4dataEv(ptr noundef nonnull align 8 dereferenceable(272) %6) #3
  %8 = call noundef nonnull align 8 dereferenceable(48) ptr @_ZNK19OpenColorIO_v2_5dev12MatrixOpData8getArrayEv(ptr noundef nonnull align 8 dereferenceable(260) %7)
  %9 = call noundef nonnull align 8 dereferenceable(24) ptr @_ZNK19OpenColorIO_v2_5dev6ArrayTIdE9getValuesEv(ptr noundef nonnull align 8 dereferenceable(48) %8)
  store ptr %9, ptr %5, align 8, !tbaa !71
  %10 = load ptr, ptr %5, align 8, !tbaa !71
  %11 = load ptr, ptr %4, align 8, !tbaa !70
  call void @_ZN19OpenColorIO_v2_5dev9GetMatrixIdEEvRKSt6vectorIdSaIdEEPT_(ptr noundef nonnull align 8 dereferenceable(24) %10, ptr noundef %11)
  call void @llvm.lifetime.end.p0(i64 8, ptr %5) #3
  ret void
}