; Function Attrs: mustprogress nofree norecurse nosync nounwind willreturn memory(read, argmem: readwrite, inaccessiblemem: none) uwtable
define hidden void @_ZNK19OpenColorIO_v2_5dev19MatrixTransformImpl9getMatrixEPd(ptr noundef nonnull readonly align 8 captures(none) dereferenceable(272) %0, ptr noundef writeonly %1) unnamed_addr #17 align 2 {
  %.not.i = icmp eq ptr %1, null
  br i1 %.not.i, label %_ZN19OpenColorIO_v2_5dev9GetMatrixIdEEvRKSt6vectorIdSaIdEEPT_.exit, label %3

3:                                                ; preds = %2
  %4 = getelementptr inbounds nuw i8, ptr %0, i64 200
  %5 = load ptr, ptr %4, align 8, !tbaa !66
  %6 = load double, ptr %5, align 8, !tbaa !67
  store double %6, ptr %1, align 8, !tbaa !67
  %7 = getelementptr inbounds nuw i8, ptr %5, i64 8
  %8 = load double, ptr %7, align 8, !tbaa !67
  %9 = getelementptr inbounds nuw i8, ptr %1, i64 8
  store double %8, ptr %9, align 8, !tbaa !67
  %10 = getelementptr inbounds nuw i8, ptr %5, i64 16
  %11 = load double, ptr %10, align 8, !tbaa !67
  %12 = getelementptr inbounds nuw i8, ptr %1, i64 16
  store double %11, ptr %12, align 8, !tbaa !67
  %13 = getelementptr inbounds nuw i8, ptr %5, i64 24
  %14 = load double, ptr %13, align 8, !tbaa !67
  %15 = getelementptr inbounds nuw i8, ptr %1, i64 24
  store double %14, ptr %15, align 8, !tbaa !67
  %16 = getelementptr inbounds nuw i8, ptr %5, i64 32
  %17 = load double, ptr %16, align 8, !tbaa !67
  %18 = getelementptr inbounds nuw i8, ptr %1, i64 32
  store double %17, ptr %18, align 8, !tbaa !67
  %19 = getelementptr inbounds nuw i8, ptr %5, i64 40
  %20 = load double, ptr %19, align 8, !tbaa !67
  %21 = getelementptr inbounds nuw i8, ptr %1, i64 40
  store double %20, ptr %21, align 8, !tbaa !67
  %22 = getelementptr inbounds nuw i8, ptr %5, i64 48
  %23 = load double, ptr %22, align 8, !tbaa !67
  %24 = getelementptr inbounds nuw i8, ptr %1, i64 48
  store double %23, ptr %24, align 8, !tbaa !67
  %25 = getelementptr inbounds nuw i8, ptr %5, i64 56
  %26 = load double, ptr %25, align 8, !tbaa !67
  %27 = getelementptr inbounds nuw i8, ptr %1, i64 56
  store double %26, ptr %27, align 8, !tbaa !67
  %28 = getelementptr inbounds nuw i8, ptr %5, i64 64
  %29 = load double, ptr %28, align 8, !tbaa !67
  %30 = getelementptr inbounds nuw i8, ptr %1, i64 64
  store double %29, ptr %30, align 8, !tbaa !67
  %31 = getelementptr inbounds nuw i8, ptr %5, i64 72
  %32 = load double, ptr %31, align 8, !tbaa !67
  %33 = getelementptr inbounds nuw i8, ptr %1, i64 72
  store double %32, ptr %33, align 8, !tbaa !67
  %34 = getelementptr inbounds nuw i8, ptr %5, i64 80
  %35 = load double, ptr %34, align 8, !tbaa !67
  %36 = getelementptr inbounds nuw i8, ptr %1, i64 80
  store double %35, ptr %36, align 8, !tbaa !67
  %37 = getelementptr inbounds nuw i8, ptr %5, i64 88
  %38 = load double, ptr %37, align 8, !tbaa !67
  %39 = getelementptr inbounds nuw i8, ptr %1, i64 88
  store double %38, ptr %39, align 8, !tbaa !67
  %40 = getelementptr inbounds nuw i8, ptr %5, i64 96
  %41 = load double, ptr %40, align 8, !tbaa !67
  %42 = getelementptr inbounds nuw i8, ptr %1, i64 96
  store double %41, ptr %42, align 8, !tbaa !67
  %43 = getelementptr inbounds nuw i8, ptr %5, i64 104
  %44 = load double, ptr %43, align 8, !tbaa !67
  %45 = getelementptr inbounds nuw i8, ptr %1, i64 104
  store double %44, ptr %45, align 8, !tbaa !67
  %46 = getelementptr inbounds nuw i8, ptr %5, i64 112
  %47 = load double, ptr %46, align 8, !tbaa !67
  %48 = getelementptr inbounds nuw i8, ptr %1, i64 112
  store double %47, ptr %48, align 8, !tbaa !67
  %49 = getelementptr inbounds nuw i8, ptr %5, i64 120
  %50 = load double, ptr %49, align 8, !tbaa !67
  %51 = getelementptr inbounds nuw i8, ptr %1, i64 120
  store double %50, ptr %51, align 8, !tbaa !67
  br label %_ZN19OpenColorIO_v2_5dev9GetMatrixIdEEvRKSt6vectorIdSaIdEEPT_.exit

_ZN19OpenColorIO_v2_5dev9GetMatrixIdEEvRKSt6vectorIdSaIdEEPT_.exit: ; preds = %2, %3
  ret void
}